target datalayout = "e-m:e-p270:32:32-p271:32:32-p272:64:64-i64:64-i128:128-f80:128-n8:16:32:64-S128"
target triple = "x86_64-pc-linux-gnu"

%struct.RBasic = type { i64, i64 }
%struct.rb_shape = type { ptr, i64, i32, i32, i8, i8, i32, ptr }
%struct.gen_ivtbl = type { %union.anon.36 }
%union.anon.36 = type { %struct.anon.37 }
%struct.anon.37 = type { i32, [1 x i64] }

@.str.2 = private unnamed_addr constant [19 x i8] c"../vm_insnhelper.c\00", align 1

; Function Attrs: inlinehint nounwind sspstrong willreturn memory(none) uwtable
define internal zeroext i1 @RB_IMMEDIATE_P(i64 noundef %0) #4 {
  %2 = alloca i64, align 8
  store i64 %0, ptr %2, align 8, !tbaa !31
  %3 = load i64, ptr %2, align 8, !tbaa !31
  %4 = and i64 %3, 7
  %5 = icmp ne i64 %4, 0
  ret i1 %5
}

; Function Attrs: inlinehint nounwind sspstrong willreturn memory(none) uwtable
define internal zeroext i1 @RB_SPECIAL_CONST_P(i64 noundef %0) #4 {
  %2 = alloca i64, align 8
  store i64 %0, ptr %2, align 8, !tbaa !31
  %3 = load i64, ptr %2, align 8, !tbaa !31
  %4 = icmp eq i64 %3, 0
  br i1 %4, label %8, label %5

5:                                                ; preds = %1
  %6 = load i64, ptr %2, align 8, !tbaa !31
  %7 = call zeroext i1 @RB_IMMEDIATE_P(i64 noundef %6) #36
  br label %8

8:                                                ; preds = %5, %1
  %9 = phi i1 [ true, %1 ], [ %7, %5 ]
  ret i1 %9
}

; Function Attrs: inlinehint nounwind sspstrong uwtable
define internal i64 @rb_obj_written(i64 noundef %0, i64 noundef %1, i64 noundef %2, ptr noundef %3, i32 noundef %4) #2 {
  %6 = alloca i64, align 8
  %7 = alloca i64, align 8
  %8 = alloca i64, align 8
  %9 = alloca ptr, align 8
  %10 = alloca i32, align 4
  store i64 %0, ptr %6, align 8, !tbaa !31
  store i64 %1, ptr %7, align 8, !tbaa !31
  store i64 %2, ptr %8, align 8, !tbaa !31
  store ptr %3, ptr %9, align 8, !tbaa !59
  store i32 %4, ptr %10, align 4, !tbaa !24
  %11 = load i64, ptr %8, align 8, !tbaa !31
  %12 = call zeroext i1 @RB_SPECIAL_CONST_P(i64 noundef %11) #36
  br i1 %12, label %16, label %13

13:                                               ; preds = %5
  %14 = load i64, ptr %6, align 8, !tbaa !31
  %15 = load i64, ptr %8, align 8, !tbaa !31
  call void @rb_gc_writebarrier(i64 noundef %14, i64 noundef %15)
  br label %16

16:                                               ; preds = %13, %5
  %17 = load i64, ptr %6, align 8, !tbaa !31
  ret i64 %17
}

; Function Attrs: inlinehint nounwind sspstrong uwtable
define internal void @set_shape_id_in_flags(i64 noundef %0, i32 noundef %1) #2 {
  %3 = alloca i64, align 8
  %4 = alloca i32, align 4
  store i64 %0, ptr %3, align 8, !tbaa !31
  store i32 %1, ptr %4, align 4, !tbaa !24
  %5 = load i64, ptr %3, align 8, !tbaa !31
  %6 = inttoptr i64 %5 to ptr
  %7 = getelementptr inbounds nuw %struct.RBasic, ptr %6, i32 0, i32 0
  %8 = load i64, ptr %7, align 8, !tbaa !299
  %9 = and i64 %8, 4294967295
  store i64 %9, ptr %7, align 8, !tbaa !299
  %10 = load i32, ptr %4, align 4, !tbaa !24
  %11 = zext i32 %10 to i64
  %12 = shl i64 %11, 32
  %13 = load i64, ptr %3, align 8, !tbaa !31
  %14 = inttoptr i64 %13 to ptr
  %15 = getelementptr inbounds nuw %struct.RBasic, ptr %14, i32 0, i32 0
  %16 = load i64, ptr %15, align 8, !tbaa !299
  %17 = or i64 %16, %12
  store i64 %17, ptr %15, align 8, !tbaa !299
  ret void
}

; Function Attrs: inlinehint nounwind sspstrong uwtable
define internal i32 @get_shape_id_from_flags(i64 noundef %0) #2 {
  %2 = alloca i64, align 8
  store i64 %0, ptr %2, align 8, !tbaa !31
  %3 = load i64, ptr %2, align 8, !tbaa !31
  %4 = inttoptr i64 %3 to ptr
  %5 = getelementptr inbounds nuw %struct.RBasic, ptr %4, i32 0, i32 0
  %6 = load i64, ptr %5, align 8, !tbaa !299
  %7 = lshr i64 %6, 32
  %8 = and i64 4294967295, %7
  %9 = trunc i64 %8 to i32
  ret i32 %9
}

; Function Attrs: inlinehint nounwind sspstrong uwtable
define internal i64 @rb_obj_write(i64 noundef %0, ptr noundef %1, i64 noundef %2, ptr noundef %3, i32 noundef %4) #2 {
  %6 = alloca i64, align 8
  %7 = alloca ptr, align 8
  %8 = alloca i64, align 8
  %9 = alloca ptr, align 8
  %10 = alloca i32, align 4
  store i64 %0, ptr %6, align 8, !tbaa !31
  store ptr %1, ptr %7, align 8, !tbaa !7
  store i64 %2, ptr %8, align 8, !tbaa !31
  store ptr %3, ptr %9, align 8, !tbaa !59
  store i32 %4, ptr %10, align 4, !tbaa !24
  %11 = load i64, ptr %8, align 8, !tbaa !31
  %12 = load ptr, ptr %7, align 8, !tbaa !7
  store i64 %11, ptr %12, align 8, !tbaa !31
  %13 = load i64, ptr %6, align 8, !tbaa !31
  %14 = load i64, ptr %8, align 8, !tbaa !31
  %15 = load ptr, ptr %9, align 8, !tbaa !59
  %16 = load i32, ptr %10, align 4, !tbaa !24
  %17 = call i64 @rb_obj_written(i64 noundef %13, i64 noundef 36, i64 noundef %14, ptr noundef %15, i32 noundef %16)
  %18 = load i64, ptr %6, align 8, !tbaa !31
  ret i64 %18
}

; Function Attrs: inlinehint nounwind sspstrong uwtable
define internal void @RBASIC_SET_SHAPE_ID(i64 noundef %0, i32 noundef %1) #2 {
  %3 = alloca i64, align 8
  %4 = alloca i32, align 4
  store i64 %0, ptr %3, align 8, !tbaa !31
  store i32 %1, ptr %4, align 4, !tbaa !24
  %5 = load i64, ptr %3, align 8, !tbaa !31
  %6 = load i32, ptr %4, align 4, !tbaa !24
  call void @set_shape_id_in_flags(i64 noundef %5, i32 noundef %6)
  ret void
}

; Function Attrs: inlinehint nounwind sspstrong uwtable
define internal i32 @RBASIC_SHAPE_ID(i64 noundef %0) #2 {
  %2 = alloca i64, align 8
  store i64 %0, ptr %2, align 8, !tbaa !31
  %3 = load i64, ptr %2, align 8, !tbaa !31
  %4 = call i32 @get_shape_id_from_flags(i64 noundef %3)
  ret i32 %4
}

; Function Attrs: noinline nounwind sspstrong uwtable
define internal i64 @vm_setivar_default(i64 noundef %0, i64 noundef %1, i64 noundef %2, i32 noundef %3, i32 noundef %4) #22 {
  %6 = alloca i64, align 8
  %7 = alloca i64, align 8
  %8 = alloca i64, align 8
  %9 = alloca i64, align 8
  %10 = alloca i32, align 4
  %11 = alloca i32, align 4
  %12 = alloca i32, align 4
  %13 = alloca ptr, align 8
  %14 = alloca ptr, align 8
  %15 = alloca ptr, align 8
  %16 = alloca i32, align 4
  store i64 %0, ptr %7, align 8, !tbaa !31
  store i64 %1, ptr %8, align 8, !tbaa !31
  store i64 %2, ptr %9, align 8, !tbaa !31
  store i32 %3, ptr %10, align 4, !tbaa !24
  store i32 %4, ptr %11, align 4, !tbaa !24
  call void @llvm.lifetime.start.p0(i64 4, ptr %12) #21
  %17 = load i64, ptr %7, align 8, !tbaa !31
  %18 = call i32 @RBASIC_SHAPE_ID(i64 noundef %17)
  store i32 %18, ptr %12, align 4, !tbaa !24
  call void @llvm.lifetime.start.p0(i64 8, ptr %13) #21
  store ptr null, ptr %13, align 8, !tbaa !602
  %19 = load i32, ptr %12, align 4, !tbaa !24
  %20 = load i32, ptr %10, align 4, !tbaa !24
  %21 = icmp eq i32 %19, %20
  br i1 %21, label %22, label %23

22:                                               ; preds = %5
  br label %59

23:                                               ; preds = %5
  %24 = load i32, ptr %10, align 4, !tbaa !24
  %25 = zext i32 %24 to i64
  %26 = icmp ne i64 %25, 4294967295
  br i1 %26, label %27, label %57

27:                                               ; preds = %23
  call void @llvm.lifetime.start.p0(i64 8, ptr %14) #21
  %28 = load i32, ptr %12, align 4, !tbaa !24
  %29 = call ptr @rb_shape_get_shape_by_id(i32 noundef %28)
  store ptr %29, ptr %14, align 8, !tbaa !527
  call void @llvm.lifetime.start.p0(i64 8, ptr %15) #21
  %30 = load i32, ptr %10, align 4, !tbaa !24
  %31 = call ptr @rb_shape_get_shape_by_id(i32 noundef %30)
  store ptr %31, ptr %15, align 8, !tbaa !527
  %32 = load i32, ptr %12, align 4, !tbaa !24
  %33 = load ptr, ptr %15, align 8, !tbaa !527
  %34 = getelementptr inbounds nuw %struct.rb_shape, ptr %33, i32 0, i32 6
  %35 = load i32, ptr %34, align 4, !tbaa !599
  %36 = icmp eq i32 %32, %35
  br i1 %36, label %37, label %52

37:                                               ; preds = %27
  %38 = load ptr, ptr %15, align 8, !tbaa !527
  %39 = getelementptr inbounds nuw %struct.rb_shape, ptr %38, i32 0, i32 1
  %40 = load i64, ptr %39, align 8, !tbaa !600
  %41 = load i64, ptr %8, align 8, !tbaa !31
  %42 = icmp eq i64 %40, %41
  br i1 %42, label %43, label %52

43:                                               ; preds = %37
  %44 = load ptr, ptr %14, align 8, !tbaa !527
  %45 = getelementptr inbounds nuw %struct.rb_shape, ptr %44, i32 0, i32 3
  %46 = load i32, ptr %45, align 4, !tbaa !601
  %47 = load ptr, ptr %15, align 8, !tbaa !527
  %48 = getelementptr inbounds nuw %struct.rb_shape, ptr %47, i32 0, i32 3
  %49 = load i32, ptr %48, align 4, !tbaa !601
  %50 = icmp eq i32 %46, %49
  br i1 %50, label %51, label %52

51:                                               ; preds = %43
  br label %53

52:                                               ; preds = %43, %37, %27
  store i64 36, ptr %6, align 8
  store i32 1, ptr %16, align 4
  br label %54

53:                                               ; preds = %51
  store i32 0, ptr %16, align 4
  br label %54

54:                                               ; preds = %53, %52
  call void @llvm.lifetime.end.p0(i64 8, ptr %15) #21
  call void @llvm.lifetime.end.p0(i64 8, ptr %14) #21
  %55 = load i32, ptr %16, align 4
  switch i32 %55, label %79 [
    i32 0, label %56
  ]

56:                                               ; preds = %54
  br label %58

57:                                               ; preds = %23
  store i64 36, ptr %6, align 8
  store i32 1, ptr %16, align 4
  br label %79

58:                                               ; preds = %56
  br label %59

59:                                               ; preds = %58, %22
  %60 = load i64, ptr %7, align 8, !tbaa !31
  %61 = call i32 @rb_gen_ivtbl_get(i64 noundef %60, i64 noundef 0, ptr noundef %13)
  %62 = load i32, ptr %12, align 4, !tbaa !24
  %63 = load i32, ptr %10, align 4, !tbaa !24
  %64 = icmp ne i32 %62, %63
  br i1 %64, label %65, label %68

65:                                               ; preds = %59
  %66 = load i64, ptr %7, align 8, !tbaa !31
  %67 = load i32, ptr %10, align 4, !tbaa !24
  call void @RBASIC_SET_SHAPE_ID(i64 noundef %66, i32 noundef %67)
  br label %68

68:                                               ; preds = %65, %59
  %69 = load i64, ptr %7, align 8, !tbaa !31
  %70 = load ptr, ptr %13, align 8, !tbaa !602
  %71 = getelementptr inbounds nuw %struct.gen_ivtbl, ptr %70, i32 0, i32 0
  %72 = getelementptr inbounds nuw %struct.anon.37, ptr %71, i32 0, i32 1
  %73 = load i32, ptr %11, align 4, !tbaa !24
  %74 = zext i32 %73 to i64
  %75 = getelementptr [1 x i64], ptr %72, i64 0, i64 %74
  %76 = load i64, ptr %9, align 8, !tbaa !31
  %77 = call i64 @rb_obj_write(i64 noundef %69, ptr noundef %75, i64 noundef %76, ptr noundef @.str.2, i32 noundef 1508)
  %78 = load i64, ptr %9, align 8, !tbaa !31
  store i64 %78, ptr %6, align 8
  store i32 1, ptr %16, align 4
  br label %79

79:                                               ; preds = %68, %57, %54
  call void @llvm.lifetime.end.p0(i64 8, ptr %13) #21
  call void @llvm.lifetime.end.p0(i64 4, ptr %12) #21
  %80 = load i64, ptr %6, align 8
  ret i64 %80
}