; Function Attrs: noinline nounwind sspstrong uwtable
define internal fastcc noundef i64 @vm_setivar_default(i64 noundef %0, i64 noundef %1, i64 noundef %2, i32 noundef %3, i32 noundef %4) unnamed_addr #27 {
  %6 = alloca ptr, align 8
  %7 = inttoptr i64 %0 to ptr
  %8 = load i64, ptr %7, align 8, !tbaa !97
  %9 = lshr i64 %8, 32
  %10 = trunc nuw i64 %9 to i32
  call void @llvm.lifetime.start.p0(i64 8, ptr nonnull %6) #21
  store ptr null, ptr %6, align 8, !tbaa !288
  %11 = icmp eq i32 %3, %10
  br i1 %11, label %.critedge.thread, label %13

.critedge.thread:                                 ; preds = %5
  %12 = call i32 @rb_gen_ivtbl_get(i64 noundef %0, i64 noundef 0, ptr noundef nonnull %6) #21
  br label %37

13:                                               ; preds = %5
  %.not = icmp eq i32 %3, -1
  br i1 %.not, label %rb_obj_write.exit, label %14

14:                                               ; preds = %13
  %15 = tail call ptr @rb_shape_get_shape_by_id(i32 noundef %10) #21
  %16 = tail call ptr @rb_shape_get_shape_by_id(i32 noundef %3) #21
  %17 = getelementptr inbounds nuw i8, ptr %16, i64 28
  %18 = load i32, ptr %17, align 4, !tbaa !124
  %19 = icmp eq i32 %18, %10
  br i1 %19, label %20, label %rb_obj_write.exit

20:                                               ; preds = %14
  %21 = getelementptr inbounds nuw i8, ptr %16, i64 8
  %22 = load i64, ptr %21, align 8, !tbaa !127
  %23 = icmp eq i64 %22, %1
  br i1 %23, label %24, label %rb_obj_write.exit

24:                                               ; preds = %20
  %25 = getelementptr inbounds nuw i8, ptr %15, i64 20
  %26 = load i32, ptr %25, align 4, !tbaa !128
  %27 = getelementptr inbounds nuw i8, ptr %16, i64 20
  %28 = load i32, ptr %27, align 4, !tbaa !128
  %29 = icmp eq i32 %26, %28
  br i1 %29, label %30, label %rb_obj_write.exit

30:                                               ; preds = %24
  %31 = call i32 @rb_gen_ivtbl_get(i64 noundef %0, i64 noundef 0, ptr noundef nonnull %6) #21
  %32 = load i64, ptr %7, align 8, !tbaa !97
  %33 = and i64 %32, 4294967295
  %34 = zext i32 %3 to i64
  %35 = shl nuw i64 %34, 32
  %36 = or disjoint i64 %33, %35
  store i64 %36, ptr %7, align 8, !tbaa !97
  br label %37

37:                                               ; preds = %.critedge.thread, %30
  %38 = load ptr, ptr %6, align 8, !tbaa !288
  %39 = getelementptr inbounds nuw i8, ptr %38, i64 8
  %40 = zext i32 %4 to i64
  %41 = getelementptr [1 x i64], ptr %39, i64 0, i64 %40
  store i64 %2, ptr %41, align 8, !tbaa !7
  %42 = icmp eq i64 %2, 0
  %43 = and i64 %2, 7
  %44 = icmp ne i64 %43, 0
  %45 = or i1 %42, %44
  br i1 %45, label %rb_obj_write.exit, label %46

46:                                               ; preds = %37
  call void @rb_gc_writebarrier(i64 noundef %0, i64 noundef %2) #21
  br label %rb_obj_write.exit

rb_obj_write.exit:                                ; preds = %46, %37, %13, %24, %20, %14
  %.1 = phi i64 [ 36, %14 ], [ 36, %20 ], [ 36, %24 ], [ 36, %13 ], [ %2, %37 ], [ %2, %46 ]
  call void @llvm.lifetime.end.p0(i64 8, ptr nonnull %6) #21
  ret i64 %.1
}